#include <math.h>
#include <stdio.h>
#include <stdlib.h>
#include <string.h>

void main()
{
	int array[100][100],row,col,n,count=0,i,j,k,*p;
	scanf("%d%d",&row,&col);
	n=row*col;
	for(i=0;i<row;i++)
	{
		for(j=0;j<col;j++)
		{
			scanf("%d",&array[i][j]);
		}
	}
	for(k=0;;k++)
	{
		for(p=array[k]+k;p<array[k]+col-k-1;p++)
		{
			printf("%d\n",*p);
			count++;
		}
		if(count==n)
			break;
		for(i=k;i<row-k;i++)
		{
			printf("%d\n",*(*(array+i)+col-k-1));
			count++;
		}
		if(count==n)
			break;
		for(i=col-k-2;i>=k;i--)
		{
			printf("%d\n",*(*(array+row-k-1)+i));
			count++;
		}
		if(count==n)
			break;
		for(i=row-k-2;i>k;i--)
		{
			printf("%d\n",*(*(array+i)+k));
            count++;
		}
		if(count==n)
			break;
	}
}

		