; ModuleID = '46/495.c'
source_filename = "46/495.c"
target datalayout = "e-m:e-p270:32:32-p271:32:32-p272:64:64-i64:64-f80:128-n8:16:32:64-S128"
target triple = "x86_64-pc-linux-gnu"

@.str = private unnamed_addr constant [5 x i8] c"%d%d\00", align 1
@.str.1 = private unnamed_addr constant [3 x i8] c"%d\00", align 1
@.str.2 = private unnamed_addr constant [4 x i8] c"%d\0A\00", align 1

; Function Attrs: noinline nounwind uwtable
define dso_local void @main() #0 {
  %1 = alloca [100 x [100 x i32]], align 16
  %2 = alloca i32, align 4
  %3 = alloca i32, align 4
  %4 = alloca i32, align 4
  %5 = alloca i32, align 4
  %6 = alloca i32, align 4
  %7 = alloca i32, align 4
  %8 = alloca i32, align 4
  %9 = alloca i32*, align 8
  store i32 0, i32* %5, align 4
  %10 = call i32 (i8*, ...) @__isoc99_scanf(i8* getelementptr inbounds ([5 x i8], [5 x i8]* @.str, i64 0, i64 0), i32* %2, i32* %3)
  %11 = load i32, i32* %2, align 4
  %12 = load i32, i32* %3, align 4
  %13 = mul nsw i32 %11, %12
  store i32 %13, i32* %4, align 4
  store i32 0, i32* %6, align 4
  br label %14

14:                                               ; preds = %35, %0
  %15 = load i32, i32* %6, align 4
  %16 = load i32, i32* %2, align 4
  %17 = icmp slt i32 %15, %16
  br i1 %17, label %18, label %38

18:                                               ; preds = %14
  store i32 0, i32* %7, align 4
  br label %19

19:                                               ; preds = %31, %18
  %20 = load i32, i32* %7, align 4
  %21 = load i32, i32* %3, align 4
  %22 = icmp slt i32 %20, %21
  br i1 %22, label %23, label %34

23:                                               ; preds = %19
  %24 = load i32, i32* %6, align 4
  %25 = sext i32 %24 to i64
  %26 = getelementptr inbounds [100 x [100 x i32]], [100 x [100 x i32]]* %1, i64 0, i64 %25
  %27 = load i32, i32* %7, align 4
  %28 = sext i32 %27 to i64
  %29 = getelementptr inbounds [100 x i32], [100 x i32]* %26, i64 0, i64 %28
  %30 = call i32 (i8*, ...) @__isoc99_scanf(i8* getelementptr inbounds ([3 x i8], [3 x i8]* @.str.1, i64 0, i64 0), i32* %29)
  br label %31

31:                                               ; preds = %23
  %32 = load i32, i32* %7, align 4
  %33 = add nsw i32 %32, 1
  store i32 %33, i32* %7, align 4
  br label %19

34:                                               ; preds = %19
  br label %35

35:                                               ; preds = %34
  %36 = load i32, i32* %6, align 4
  %37 = add nsw i32 %36, 1
  store i32 %37, i32* %6, align 4
  br label %14

38:                                               ; preds = %14
  store i32 0, i32* %8, align 4
  br label %39

39:                                               ; preds = %176, %38
  %40 = load i32, i32* %8, align 4
  %41 = sext i32 %40 to i64
  %42 = getelementptr inbounds [100 x [100 x i32]], [100 x [100 x i32]]* %1, i64 0, i64 %41
  %43 = getelementptr inbounds [100 x i32], [100 x i32]* %42, i64 0, i64 0
  %44 = load i32, i32* %8, align 4
  %45 = sext i32 %44 to i64
  %46 = getelementptr inbounds i32, i32* %43, i64 %45
  store i32* %46, i32** %9, align 8
  br label %47

47:                                               ; preds = %68, %39
  %48 = load i32*, i32** %9, align 8
  %49 = load i32, i32* %8, align 4
  %50 = sext i32 %49 to i64
  %51 = getelementptr inbounds [100 x [100 x i32]], [100 x [100 x i32]]* %1, i64 0, i64 %50
  %52 = getelementptr inbounds [100 x i32], [100 x i32]* %51, i64 0, i64 0
  %53 = load i32, i32* %3, align 4
  %54 = sext i32 %53 to i64
  %55 = getelementptr inbounds i32, i32* %52, i64 %54
  %56 = load i32, i32* %8, align 4
  %57 = sext i32 %56 to i64
  %58 = sub i64 0, %57
  %59 = getelementptr inbounds i32, i32* %55, i64 %58
  %60 = getelementptr inbounds i32, i32* %59, i64 -1
  %61 = icmp ult i32* %48, %60
  br i1 %61, label %62, label %71

62:                                               ; preds = %47
  %63 = load i32*, i32** %9, align 8
  %64 = load i32, i32* %63, align 4
  %65 = call i32 (i8*, ...) @printf(i8* getelementptr inbounds ([4 x i8], [4 x i8]* @.str.2, i64 0, i64 0), i32 %64)
  %66 = load i32, i32* %5, align 4
  %67 = add nsw i32 %66, 1
  store i32 %67, i32* %5, align 4
  br label %68

68:                                               ; preds = %62
  %69 = load i32*, i32** %9, align 8
  %70 = getelementptr inbounds i32, i32* %69, i32 1
  store i32* %70, i32** %9, align 8
  br label %47

71:                                               ; preds = %47
  %72 = load i32, i32* %5, align 4
  %73 = load i32, i32* %4, align 4
  %74 = icmp eq i32 %72, %73
  br i1 %74, label %75, label %76

75:                                               ; preds = %71
  br label %179

76:                                               ; preds = %71
  %77 = load i32, i32* %8, align 4
  store i32 %77, i32* %6, align 4
  br label %78

78:                                               ; preds = %102, %76
  %79 = load i32, i32* %6, align 4
  %80 = load i32, i32* %2, align 4
  %81 = load i32, i32* %8, align 4
  %82 = sub nsw i32 %80, %81
  %83 = icmp slt i32 %79, %82
  br i1 %83, label %84, label %105

84:                                               ; preds = %78
  %85 = getelementptr inbounds [100 x [100 x i32]], [100 x [100 x i32]]* %1, i64 0, i64 0
  %86 = load i32, i32* %6, align 4
  %87 = sext i32 %86 to i64
  %88 = getelementptr inbounds [100 x i32], [100 x i32]* %85, i64 %87
  %89 = getelementptr inbounds [100 x i32], [100 x i32]* %88, i64 0, i64 0
  %90 = load i32, i32* %3, align 4
  %91 = sext i32 %90 to i64
  %92 = getelementptr inbounds i32, i32* %89, i64 %91
  %93 = load i32, i32* %8, align 4
  %94 = sext i32 %93 to i64
  %95 = sub i64 0, %94
  %96 = getelementptr inbounds i32, i32* %92, i64 %95
  %97 = getelementptr inbounds i32, i32* %96, i64 -1
  %98 = load i32, i32* %97, align 4
  %99 = call i32 (i8*, ...) @printf(i8* getelementptr inbounds ([4 x i8], [4 x i8]* @.str.2, i64 0, i64 0), i32 %98)
  %100 = load i32, i32* %5, align 4
  %101 = add nsw i32 %100, 1
  store i32 %101, i32* %5, align 4
  br label %102

102:                                              ; preds = %84
  %103 = load i32, i32* %6, align 4
  %104 = add nsw i32 %103, 1
  store i32 %104, i32* %6, align 4
  br label %78

105:                                              ; preds = %78
  %106 = load i32, i32* %5, align 4
  %107 = load i32, i32* %4, align 4
  %108 = icmp eq i32 %106, %107
  br i1 %108, label %109, label %110

109:                                              ; preds = %105
  br label %179

110:                                              ; preds = %105
  %111 = load i32, i32* %3, align 4
  %112 = load i32, i32* %8, align 4
  %113 = sub nsw i32 %111, %112
  %114 = sub nsw i32 %113, 2
  store i32 %114, i32* %6, align 4
  br label %115

115:                                              ; preds = %137, %110
  %116 = load i32, i32* %6, align 4
  %117 = load i32, i32* %8, align 4
  %118 = icmp sge i32 %116, %117
  br i1 %118, label %119, label %140

119:                                              ; preds = %115
  %120 = getelementptr inbounds [100 x [100 x i32]], [100 x [100 x i32]]* %1, i64 0, i64 0
  %121 = load i32, i32* %2, align 4
  %122 = sext i32 %121 to i64
  %123 = getelementptr inbounds [100 x i32], [100 x i32]* %120, i64 %122
  %124 = load i32, i32* %8, align 4
  %125 = sext i32 %124 to i64
  %126 = sub i64 0, %125
  %127 = getelementptr inbounds [100 x i32], [100 x i32]* %123, i64 %126
  %128 = getelementptr inbounds [100 x i32], [100 x i32]* %127, i64 -1
  %129 = getelementptr inbounds [100 x i32], [100 x i32]* %128, i64 0, i64 0
  %130 = load i32, i32* %6, align 4
  %131 = sext i32 %130 to i64
  %132 = getelementptr inbounds i32, i32* %129, i64 %131
  %133 = load i32, i32* %132, align 4
  %134 = call i32 (i8*, ...) @printf(i8* getelementptr inbounds ([4 x i8], [4 x i8]* @.str.2, i64 0, i64 0), i32 %133)
  %135 = load i32, i32* %5, align 4
  %136 = add nsw i32 %135, 1
  store i32 %136, i32* %5, align 4
  br label %137

137:                                              ; preds = %119
  %138 = load i32, i32* %6, align 4
  %139 = add nsw i32 %138, -1
  store i32 %139, i32* %6, align 4
  br label %115

140:                                              ; preds = %115
  %141 = load i32, i32* %5, align 4
  %142 = load i32, i32* %4, align 4
  %143 = icmp eq i32 %141, %142
  br i1 %143, label %144, label %145

144:                                              ; preds = %140
  br label %179

145:                                              ; preds = %140
  %146 = load i32, i32* %2, align 4
  %147 = load i32, i32* %8, align 4
  %148 = sub nsw i32 %146, %147
  %149 = sub nsw i32 %148, 2
  store i32 %149, i32* %6, align 4
  br label %150

150:                                              ; preds = %167, %145
  %151 = load i32, i32* %6, align 4
  %152 = load i32, i32* %8, align 4
  %153 = icmp sgt i32 %151, %152
  br i1 %153, label %154, label %170

154:                                              ; preds = %150
  %155 = getelementptr inbounds [100 x [100 x i32]], [100 x [100 x i32]]* %1, i64 0, i64 0
  %156 = load i32, i32* %6, align 4
  %157 = sext i32 %156 to i64
  %158 = getelementptr inbounds [100 x i32], [100 x i32]* %155, i64 %157
  %159 = getelementptr inbounds [100 x i32], [100 x i32]* %158, i64 0, i64 0
  %160 = load i32, i32* %8, align 4
  %161 = sext i32 %160 to i64
  %162 = getelementptr inbounds i32, i32* %159, i64 %161
  %163 = load i32, i32* %162, align 4
  %164 = call i32 (i8*, ...) @printf(i8* getelementptr inbounds ([4 x i8], [4 x i8]* @.str.2, i64 0, i64 0), i32 %163)
  %165 = load i32, i32* %5, align 4
  %166 = add nsw i32 %165, 1
  store i32 %166, i32* %5, align 4
  br label %167

167:                                              ; preds = %154
  %168 = load i32, i32* %6, align 4
  %169 = add nsw i32 %168, -1
  store i32 %169, i32* %6, align 4
  br label %150

170:                                              ; preds = %150
  %171 = load i32, i32* %5, align 4
  %172 = load i32, i32* %4, align 4
  %173 = icmp eq i32 %171, %172
  br i1 %173, label %174, label %175

174:                                              ; preds = %170
  br label %179

175:                                              ; preds = %170
  br label %176

176:                                              ; preds = %175
  %177 = load i32, i32* %8, align 4
  %178 = add nsw i32 %177, 1
  store i32 %178, i32* %8, align 4
  br label %39

179:                                              ; preds = %174, %144, %109, %75
  ret void
}

declare dso_local i32 @__isoc99_scanf(i8*, ...) #1

declare dso_local i32 @printf(i8*, ...) #1


!llvm.module.flags = !{!0}
!llvm.ident = !{!1}

!0 = !{i32 1, !"wchar_size", i32 4}
!1 = !{!"clang version 10.0.0-4ubuntu1 "}
